target datalayout = "e-m:e-p270:32:32-p271:32:32-p272:64:64-i64:64-i128:128-f80:128-n8:16:32:64-S128"
target triple = "x86_64-pc-linux-gnu"

%struct.QMetaObject = type { %"struct.QMetaObject::Data" }
%"struct.QMetaObject::Data" = type { %"struct.QMetaObject::SuperData", ptr, ptr, ptr, ptr, ptr, ptr }
%"struct.QMetaObject::SuperData" = type { ptr }
%class.QString = type { %struct.QArrayDataPointer }
%struct.QArrayDataPointer = type { ptr, ptr, i64 }
%class.QObject = type { ptr, %class.QScopedPointer }
%class.QScopedPointer = type { ptr }
%class.CMainWindow = type { %class.QMainWindow, ptr, ptr, i32, i32, ptr, ptr, ptr, ptr, ptr, ptr, ptr, ptr, ptr, ptr, ptr, ptr, ptr, ptr, ptr, ptr, ptr, ptr, ptr, ptr, ptr, ptr, ptr, ptr, ptr, ptr, ptr }
%class.QMainWindow = type { %class.QWidget }
%class.QWidget = type { %class.QObject, %class.QPaintDevice.base, ptr }
%class.QPaintDevice.base = type <{ ptr, i16 }>
%struct.QArrayData = type { %class.QBasicAtomicInteger, %class.QFlags.17, i64 }
%class.QBasicAtomicInteger = type { %"struct.std::atomic" }
%"struct.std::atomic" = type { %"struct.std::__atomic_base" }
%"struct.std::__atomic_base" = type { i32 }
%class.QFlags.17 = type { i32 }

@.str.82 = private unnamed_addr constant [5 x i8] c"File\00", align 1
@.str.83 = private unnamed_addr constant [5 x i8] c"Edit\00", align 1
@.str.84 = private unnamed_addr constant [6 x i8] c"Graph\00", align 1
@_ZN11CMainWindow16staticMetaObjectE = external global %struct.QMetaObject, align 8

; Function Attrs: mustprogress nounwind uwtable
define linkonce_odr noundef i32 @_ZNSt13__atomic_baseIiEmmEv(ptr noundef nonnull align 4 dereferenceable(4) %0) #3 comdat align 2 {
  %2 = alloca ptr, align 8
  %3 = alloca i32, align 4
  %4 = alloca i32, align 4
  store ptr %0, ptr %2, align 8, !tbaa !258
  %5 = load ptr, ptr %2, align 8
  %6 = getelementptr inbounds nuw %"struct.std::__atomic_base", ptr %5, i32 0, i32 0
  store i32 1, ptr %3, align 4, !tbaa !34
  %7 = load i32, ptr %3, align 4
  %8 = atomicrmw sub ptr %6, i32 %7 seq_cst, align 4
  %9 = sub i32 %8, %7
  store i32 %9, ptr %4, align 4
  %10 = load i32, ptr %4, align 4, !tbaa !34
  ret i32 %10
}

; Function Attrs: inlinehint mustprogress nounwind uwtable
define linkonce_odr noundef zeroext i1 @_ZN10QAtomicOpsIiE5derefIiEEbRSt6atomicIT_E(ptr noundef nonnull align 4 dereferenceable(4) %0) #4 comdat align 2 {
  %2 = alloca ptr, align 8
  store ptr %0, ptr %2, align 8, !tbaa !256
  %3 = load ptr, ptr %2, align 8, !tbaa !256
  %4 = call noundef i32 @_ZNSt13__atomic_baseIiEmmEv(ptr noundef nonnull align 4 dereferenceable(4) %3) #11
  %5 = icmp ne i32 %4, 0
  ret i1 %5
}

; Function Attrs: mustprogress nounwind uwtable
define linkonce_odr noundef zeroext i1 @_ZN19QBasicAtomicIntegerIiE5derefEv(ptr noundef nonnull align 4 dereferenceable(4) %0) #3 comdat align 2 {
  %2 = alloca ptr, align 8
  store ptr %0, ptr %2, align 8, !tbaa !254
  %3 = load ptr, ptr %2, align 8
  %4 = getelementptr inbounds nuw %class.QBasicAtomicInteger, ptr %3, i32 0, i32 0
  %5 = call noundef zeroext i1 @_ZN10QAtomicOpsIiE5derefIiEEbRSt6atomicIT_E(ptr noundef nonnull align 4 dereferenceable(4) %4) #11
  ret i1 %5
}

; Function Attrs: mustprogress nounwind uwtable
define linkonce_odr noundef zeroext i1 @_ZN10QArrayData5derefEv(ptr noundef nonnull align 8 dereferenceable(16) %0) #3 comdat align 2 {
  %2 = alloca ptr, align 8
  store ptr %0, ptr %2, align 8, !tbaa !252
  %3 = load ptr, ptr %2, align 8
  %4 = getelementptr inbounds nuw %struct.QArrayData, ptr %3, i32 0, i32 0
  %5 = call noundef zeroext i1 @_ZN19QBasicAtomicIntegerIiE5derefEv(ptr noundef nonnull align 4 dereferenceable(4) %4) #11
  ret i1 %5
}

; Function Attrs: mustprogress nounwind uwtable
define linkonce_odr void @_ZN15QTypedArrayDataIDsE10deallocateEP10QArrayData(ptr noundef %0) #3 comdat align 2 {
  %2 = alloca ptr, align 8
  store ptr %0, ptr %2, align 8, !tbaa !252
  %3 = load ptr, ptr %2, align 8, !tbaa !252
  call void @_ZN10QArrayData10deallocateEPS_xx(ptr noundef %3, i64 noundef 2, i64 noundef 8) #11
  ret void
}

; Function Attrs: mustprogress nounwind uwtable
define linkonce_odr void @_ZN9QtPrivate12QPodArrayOpsIDsE10destroyAllEv(ptr noundef nonnull align 8 dereferenceable(24) %0) #3 comdat align 2 {
  %2 = alloca ptr, align 8
  store ptr %0, ptr %2, align 8, !tbaa !348
  ret void
}

; Function Attrs: mustprogress nounwind uwtable
define linkonce_odr noundef ptr @_ZN17QArrayDataPointerIDsEptEv(ptr noundef nonnull align 8 dereferenceable(24) %0) #3 comdat align 2 {
  %2 = alloca ptr, align 8
  store ptr %0, ptr %2, align 8, !tbaa !44
  %3 = load ptr, ptr %2, align 8
  ret ptr %3
}

; Function Attrs: mustprogress nounwind uwtable
define linkonce_odr noundef zeroext i1 @_ZN17QArrayDataPointerIDsE5derefEv(ptr noundef nonnull align 8 dereferenceable(24) %0) #3 comdat align 2 {
  %2 = alloca ptr, align 8
  store ptr %0, ptr %2, align 8, !tbaa !44
  %3 = load ptr, ptr %2, align 8
  %4 = getelementptr inbounds nuw %struct.QArrayDataPointer, ptr %3, i32 0, i32 0
  %5 = load ptr, ptr %4, align 8, !tbaa !46
  %6 = icmp ne ptr %5, null
  br i1 %6, label %7, label %11

7:                                                ; preds = %1
  %8 = getelementptr inbounds nuw %struct.QArrayDataPointer, ptr %3, i32 0, i32 0
  %9 = load ptr, ptr %8, align 8, !tbaa !46
  %10 = call noundef zeroext i1 @_ZN10QArrayData5derefEv(ptr noundef nonnull align 8 dereferenceable(16) %9) #11
  br label %11

11:                                               ; preds = %7, %1
  %12 = phi i1 [ true, %1 ], [ %10, %7 ]
  ret i1 %12
}

; Function Attrs: mustprogress nounwind uwtable
define linkonce_odr void @_ZN17QArrayDataPointerIDsED2Ev(ptr noundef nonnull align 8 dereferenceable(24) %0) unnamed_addr #3 comdat align 2 {
  %2 = alloca ptr, align 8
  store ptr %0, ptr %2, align 8, !tbaa !44
  %3 = load ptr, ptr %2, align 8
  %4 = call noundef zeroext i1 @_ZN17QArrayDataPointerIDsE5derefEv(ptr noundef nonnull align 8 dereferenceable(24) %3) #11
  br i1 %4, label %9, label %5

5:                                                ; preds = %1
  %6 = call noundef ptr @_ZN17QArrayDataPointerIDsEptEv(ptr noundef nonnull align 8 dereferenceable(24) %3) #11
  call void @_ZN9QtPrivate12QPodArrayOpsIDsE10destroyAllEv(ptr noundef nonnull align 8 dereferenceable(24) %6) #11
  %7 = getelementptr inbounds nuw %struct.QArrayDataPointer, ptr %3, i32 0, i32 0
  %8 = load ptr, ptr %7, align 8, !tbaa !46
  call void @_ZN15QTypedArrayDataIDsE10deallocateEP10QArrayData(ptr noundef %8) #11
  br label %9

9:                                                ; preds = %5, %1
  ret void
}

; Function Attrs: inlinehint mustprogress nounwind uwtable
define linkonce_odr void @_ZN7QStringD2Ev(ptr noundef nonnull align 8 dereferenceable(24) %0) unnamed_addr #4 comdat align 2 {
  %2 = alloca ptr, align 8
  store ptr %0, ptr %2, align 8, !tbaa !10
  %3 = load ptr, ptr %2, align 8
  %4 = getelementptr inbounds nuw %class.QString, ptr %3, i32 0, i32 0
  call void @_ZN17QArrayDataPointerIDsED2Ev(ptr noundef nonnull align 8 dereferenceable(24) %4) #11
  ret void
}

; Function Attrs: inlinehint mustprogress uwtable
define linkonce_odr void @_ZN11CMainWindow2trEPKcS1_i(ptr dead_on_unwind noalias writable sret(%class.QString) align 8 %0, ptr noundef %1, ptr noundef %2, i32 noundef %3) #6 comdat align 2 {
  %5 = alloca ptr, align 8
  %6 = alloca ptr, align 8
  %7 = alloca ptr, align 8
  %8 = alloca i32, align 4
  store ptr %0, ptr %5, align 8
  store ptr %1, ptr %6, align 8, !tbaa !3
  store ptr %2, ptr %7, align 8, !tbaa !3
  store i32 %3, ptr %8, align 4, !tbaa !34
  %9 = load ptr, ptr %6, align 8, !tbaa !3
  %10 = load ptr, ptr %7, align 8, !tbaa !3
  %11 = load i32, ptr %8, align 4, !tbaa !34
  call void @_ZNK11QMetaObject2trEPKcS1_i(ptr dead_on_unwind writable sret(%class.QString) align 8 %0, ptr noundef nonnull align 8 dereferenceable(56) @_ZN11CMainWindow16staticMetaObjectE, ptr noundef %9, ptr noundef %10, i32 noundef %11)
  ret void
}

; Function Attrs: mustprogress uwtable
define void @_ZN11CMainWindow8toolBarsEv(ptr noundef nonnull align 8 dereferenceable(280) %0) #0 align 2 personality ptr @__gxx_personality_v0 {
  %2 = alloca ptr, align 8
  %3 = alloca %class.QString, align 8
  %4 = alloca ptr, align 8
  %5 = alloca i32, align 4
  %6 = alloca %class.QString, align 8
  %7 = alloca %class.QString, align 8
  store ptr %0, ptr %2, align 8, !tbaa !21
  %8 = load ptr, ptr %2, align 8
  call void @llvm.lifetime.start.p0(i64 24, ptr %3) #11
  call void @_ZN11CMainWindow2trEPKcS1_i(ptr dead_on_unwind writable sret(%class.QString) align 8 %3, ptr noundef @.str.82, ptr noundef null, i32 noundef -1)
  %9 = invoke noundef ptr @_ZN11QMainWindow10addToolBarERK7QString(ptr noundef nonnull align 8 dereferenceable(40) %8, ptr noundef nonnull align 8 dereferenceable(24) %3)
          to label %10 unwind label %50

10:                                               ; preds = %1
  %11 = getelementptr inbounds nuw %class.CMainWindow, ptr %8, i32 0, i32 5
  store ptr %9, ptr %11, align 8, !tbaa !125
  call void @_ZN7QStringD2Ev(ptr noundef nonnull align 8 dereferenceable(24) %3) #11
  call void @llvm.lifetime.end.p0(i64 24, ptr %3) #11
  %12 = getelementptr inbounds nuw %class.CMainWindow, ptr %8, i32 0, i32 5
  %13 = load ptr, ptr %12, align 8, !tbaa !125
  %14 = getelementptr inbounds nuw %class.CMainWindow, ptr %8, i32 0, i32 8
  %15 = load ptr, ptr %14, align 8, !tbaa !100
  call void @_ZN7QWidget9addActionEP7QAction(ptr noundef nonnull align 8 dereferenceable(40) %13, ptr noundef %15)
  %16 = getelementptr inbounds nuw %class.CMainWindow, ptr %8, i32 0, i32 5
  %17 = load ptr, ptr %16, align 8, !tbaa !125
  %18 = getelementptr inbounds nuw %class.CMainWindow, ptr %8, i32 0, i32 9
  %19 = load ptr, ptr %18, align 8, !tbaa !101
  call void @_ZN7QWidget9addActionEP7QAction(ptr noundef nonnull align 8 dereferenceable(40) %17, ptr noundef %19)
  %20 = getelementptr inbounds nuw %class.CMainWindow, ptr %8, i32 0, i32 5
  %21 = load ptr, ptr %20, align 8, !tbaa !125
  %22 = getelementptr inbounds nuw %class.CMainWindow, ptr %8, i32 0, i32 10
  %23 = load ptr, ptr %22, align 8, !tbaa !102
  call void @_ZN7QWidget9addActionEP7QAction(ptr noundef nonnull align 8 dereferenceable(40) %21, ptr noundef %23)
  call void @llvm.lifetime.start.p0(i64 24, ptr %6) #11
  call void @_ZN11CMainWindow2trEPKcS1_i(ptr dead_on_unwind writable sret(%class.QString) align 8 %6, ptr noundef @.str.83, ptr noundef null, i32 noundef -1)
  %24 = invoke noundef ptr @_ZN11QMainWindow10addToolBarERK7QString(ptr noundef nonnull align 8 dereferenceable(40) %8, ptr noundef nonnull align 8 dereferenceable(24) %6)
          to label %25 unwind label %54

25:                                               ; preds = %10
  %26 = getelementptr inbounds nuw %class.CMainWindow, ptr %8, i32 0, i32 6
  store ptr %24, ptr %26, align 8, !tbaa !126
  call void @_ZN7QStringD2Ev(ptr noundef nonnull align 8 dereferenceable(24) %6) #11
  call void @llvm.lifetime.end.p0(i64 24, ptr %6) #11
  %27 = getelementptr inbounds nuw %class.CMainWindow, ptr %8, i32 0, i32 6
  %28 = load ptr, ptr %27, align 8, !tbaa !126
  %29 = getelementptr inbounds nuw %class.CMainWindow, ptr %8, i32 0, i32 13
  %30 = load ptr, ptr %29, align 8, !tbaa !105
  call void @_ZN7QWidget9addActionEP7QAction(ptr noundef nonnull align 8 dereferenceable(40) %28, ptr noundef %30)
  %31 = getelementptr inbounds nuw %class.CMainWindow, ptr %8, i32 0, i32 6
  %32 = load ptr, ptr %31, align 8, !tbaa !126
  %33 = getelementptr inbounds nuw %class.CMainWindow, ptr %8, i32 0, i32 14
  %34 = load ptr, ptr %33, align 8, !tbaa !106
  call void @_ZN7QWidget9addActionEP7QAction(ptr noundef nonnull align 8 dereferenceable(40) %32, ptr noundef %34)
  %35 = getelementptr inbounds nuw %class.CMainWindow, ptr %8, i32 0, i32 6
  %36 = load ptr, ptr %35, align 8, !tbaa !126
  %37 = getelementptr inbounds nuw %class.CMainWindow, ptr %8, i32 0, i32 15
  %38 = load ptr, ptr %37, align 8, !tbaa !107
  call void @_ZN7QWidget9addActionEP7QAction(ptr noundef nonnull align 8 dereferenceable(40) %36, ptr noundef %38)
  call void @llvm.lifetime.start.p0(i64 24, ptr %7) #11
  call void @_ZN11CMainWindow2trEPKcS1_i(ptr dead_on_unwind writable sret(%class.QString) align 8 %7, ptr noundef @.str.84, ptr noundef null, i32 noundef -1)
  %39 = invoke noundef ptr @_ZN11QMainWindow10addToolBarERK7QString(ptr noundef nonnull align 8 dereferenceable(40) %8, ptr noundef nonnull align 8 dereferenceable(24) %7)
          to label %40 unwind label %58

40:                                               ; preds = %25
  %41 = getelementptr inbounds nuw %class.CMainWindow, ptr %8, i32 0, i32 7
  store ptr %39, ptr %41, align 8, !tbaa !127
  call void @_ZN7QStringD2Ev(ptr noundef nonnull align 8 dereferenceable(24) %7) #11
  call void @llvm.lifetime.end.p0(i64 24, ptr %7) #11
  %42 = getelementptr inbounds nuw %class.CMainWindow, ptr %8, i32 0, i32 7
  %43 = load ptr, ptr %42, align 8, !tbaa !127
  %44 = getelementptr inbounds nuw %class.CMainWindow, ptr %8, i32 0, i32 24
  %45 = load ptr, ptr %44, align 8, !tbaa !116
  call void @_ZN7QWidget9addActionEP7QAction(ptr noundef nonnull align 8 dereferenceable(40) %43, ptr noundef %45)
  %46 = getelementptr inbounds nuw %class.CMainWindow, ptr %8, i32 0, i32 7
  %47 = load ptr, ptr %46, align 8, !tbaa !127
  %48 = getelementptr inbounds nuw %class.CMainWindow, ptr %8, i32 0, i32 25
  %49 = load ptr, ptr %48, align 8, !tbaa !117
  call void @_ZN7QWidget9addActionEP7QAction(ptr noundef nonnull align 8 dereferenceable(40) %47, ptr noundef %49)
  ret void

50:                                               ; preds = %1
  %51 = landingpad { ptr, i32 }
          cleanup
  %52 = extractvalue { ptr, i32 } %51, 0
  store ptr %52, ptr %4, align 8
  %53 = extractvalue { ptr, i32 } %51, 1
  store i32 %53, ptr %5, align 4
  call void @_ZN7QStringD2Ev(ptr noundef nonnull align 8 dereferenceable(24) %3) #11
  call void @llvm.lifetime.end.p0(i64 24, ptr %3) #11
  br label %62

54:                                               ; preds = %10
  %55 = landingpad { ptr, i32 }
          cleanup
  %56 = extractvalue { ptr, i32 } %55, 0
  store ptr %56, ptr %4, align 8
  %57 = extractvalue { ptr, i32 } %55, 1
  store i32 %57, ptr %5, align 4
  call void @_ZN7QStringD2Ev(ptr noundef nonnull align 8 dereferenceable(24) %6) #11
  call void @llvm.lifetime.end.p0(i64 24, ptr %6) #11
  br label %62

58:                                               ; preds = %25
  %59 = landingpad { ptr, i32 }
          cleanup
  %60 = extractvalue { ptr, i32 } %59, 0
  store ptr %60, ptr %4, align 8
  %61 = extractvalue { ptr, i32 } %59, 1
  store i32 %61, ptr %5, align 4
  call void @_ZN7QStringD2Ev(ptr noundef nonnull align 8 dereferenceable(24) %7) #11
  call void @llvm.lifetime.end.p0(i64 24, ptr %7) #11
  br label %62

62:                                               ; preds = %58, %54, %50
  %63 = load ptr, ptr %4, align 8
  %64 = load i32, ptr %5, align 4
  %65 = insertvalue { ptr, i32 } poison, ptr %63, 0
  %66 = insertvalue { ptr, i32 } %65, i32 %64, 1
  resume { ptr, i32 } %66
}