; Function Attrs: mustprogress uwtable
define void @_ZN11CMainWindow8toolBarsEv(ptr noundef nonnull align 8 dereferenceable(280) %0) local_unnamed_addr #0 align 2 personality ptr @__gxx_personality_v0 {
  %2 = alloca %class.QString, align 8
  %3 = alloca %class.QString, align 8
  %4 = alloca %class.QString, align 8
  call void @llvm.lifetime.start.p0(i64 24, ptr nonnull %2) #16
  call void @_ZNK11QMetaObject2trEPKcS1_i(ptr dead_on_unwind nonnull writable sret(%class.QString) align 8 %2, ptr noundef nonnull align 8 dereferenceable(56) @_ZN11CMainWindow16staticMetaObjectE, ptr noundef nonnull @.str.82, ptr noundef null, i32 noundef -1)
  %5 = invoke noundef ptr @_ZN11QMainWindow10addToolBarERK7QString(ptr noundef nonnull align 8 dereferenceable(40) %0, ptr noundef nonnull align 8 dereferenceable(24) %2)
          to label %6 unwind label %50

6:                                                ; preds = %1
  %7 = getelementptr inbounds nuw i8, ptr %0, i64 64
  store ptr %5, ptr %7, align 8, !tbaa !167
  %8 = load ptr, ptr %2, align 8, !tbaa !11
  %.not.i.i.i = icmp eq ptr %8, null
  br i1 %.not.i.i.i, label %_ZN7QStringD2Ev.exit, label %_ZN17QArrayDataPointerIDsE5derefEv.exit.i.i

_ZN17QArrayDataPointerIDsE5derefEv.exit.i.i:      ; preds = %6
  %9 = atomicrmw sub ptr %8, i32 1 seq_cst, align 4
  %.not.i.i = icmp eq i32 %9, 1
  br i1 %.not.i.i, label %10, label %_ZN7QStringD2Ev.exit

10:                                               ; preds = %_ZN17QArrayDataPointerIDsE5derefEv.exit.i.i
  %11 = load ptr, ptr %2, align 8, !tbaa !11
  call void @_ZN10QArrayData10deallocateEPS_xx(ptr noundef %11, i64 noundef 2, i64 noundef 8) #16
  br label %_ZN7QStringD2Ev.exit

_ZN7QStringD2Ev.exit:                             ; preds = %6, %_ZN17QArrayDataPointerIDsE5derefEv.exit.i.i, %10
  call void @llvm.lifetime.end.p0(i64 24, ptr nonnull %2) #16
  %12 = load ptr, ptr %7, align 8, !tbaa !167
  %13 = getelementptr inbounds nuw i8, ptr %0, i64 88
  %14 = load ptr, ptr %13, align 8, !tbaa !82
  call void @_ZN7QWidget9addActionEP7QAction(ptr noundef nonnull align 8 dereferenceable(40) %12, ptr noundef %14)
  %15 = load ptr, ptr %7, align 8, !tbaa !167
  %16 = getelementptr inbounds nuw i8, ptr %0, i64 96
  %17 = load ptr, ptr %16, align 8, !tbaa !86
  call void @_ZN7QWidget9addActionEP7QAction(ptr noundef nonnull align 8 dereferenceable(40) %15, ptr noundef %17)
  %18 = load ptr, ptr %7, align 8, !tbaa !167
  %19 = getelementptr inbounds nuw i8, ptr %0, i64 104
  %20 = load ptr, ptr %19, align 8, !tbaa !90
  call void @_ZN7QWidget9addActionEP7QAction(ptr noundef nonnull align 8 dereferenceable(40) %18, ptr noundef %20)
  call void @llvm.lifetime.start.p0(i64 24, ptr nonnull %3) #16
  call void @_ZNK11QMetaObject2trEPKcS1_i(ptr dead_on_unwind nonnull writable sret(%class.QString) align 8 %3, ptr noundef nonnull align 8 dereferenceable(56) @_ZN11CMainWindow16staticMetaObjectE, ptr noundef nonnull @.str.83, ptr noundef null, i32 noundef -1)
  %21 = invoke noundef ptr @_ZN11QMainWindow10addToolBarERK7QString(ptr noundef nonnull align 8 dereferenceable(40) %0, ptr noundef nonnull align 8 dereferenceable(24) %3)
          to label %22 unwind label %56

22:                                               ; preds = %_ZN7QStringD2Ev.exit
  %23 = getelementptr inbounds nuw i8, ptr %0, i64 72
  store ptr %21, ptr %23, align 8, !tbaa !168
  %24 = load ptr, ptr %3, align 8, !tbaa !11
  %.not.i.i.i4 = icmp eq ptr %24, null
  br i1 %.not.i.i.i4, label %_ZN7QStringD2Ev.exit7, label %_ZN17QArrayDataPointerIDsE5derefEv.exit.i.i5

_ZN17QArrayDataPointerIDsE5derefEv.exit.i.i5:     ; preds = %22
  %25 = atomicrmw sub ptr %24, i32 1 seq_cst, align 4
  %.not.i.i6 = icmp eq i32 %25, 1
  br i1 %.not.i.i6, label %26, label %_ZN7QStringD2Ev.exit7

26:                                               ; preds = %_ZN17QArrayDataPointerIDsE5derefEv.exit.i.i5
  %27 = load ptr, ptr %3, align 8, !tbaa !11
  call void @_ZN10QArrayData10deallocateEPS_xx(ptr noundef %27, i64 noundef 2, i64 noundef 8) #16
  br label %_ZN7QStringD2Ev.exit7

_ZN7QStringD2Ev.exit7:                            ; preds = %22, %_ZN17QArrayDataPointerIDsE5derefEv.exit.i.i5, %26
  call void @llvm.lifetime.end.p0(i64 24, ptr nonnull %3) #16
  %28 = load ptr, ptr %23, align 8, !tbaa !168
  %29 = getelementptr inbounds nuw i8, ptr %0, i64 128
  %30 = load ptr, ptr %29, align 8, !tbaa !106
  call void @_ZN7QWidget9addActionEP7QAction(ptr noundef nonnull align 8 dereferenceable(40) %28, ptr noundef %30)
  %31 = load ptr, ptr %23, align 8, !tbaa !168
  %32 = getelementptr inbounds nuw i8, ptr %0, i64 136
  %33 = load ptr, ptr %32, align 8, !tbaa !110
  call void @_ZN7QWidget9addActionEP7QAction(ptr noundef nonnull align 8 dereferenceable(40) %31, ptr noundef %33)
  %34 = load ptr, ptr %23, align 8, !tbaa !168
  %35 = getelementptr inbounds nuw i8, ptr %0, i64 144
  %36 = load ptr, ptr %35, align 8, !tbaa !114
  call void @_ZN7QWidget9addActionEP7QAction(ptr noundef nonnull align 8 dereferenceable(40) %34, ptr noundef %36)
  call void @llvm.lifetime.start.p0(i64 24, ptr nonnull %4) #16
  call void @_ZNK11QMetaObject2trEPKcS1_i(ptr dead_on_unwind nonnull writable sret(%class.QString) align 8 %4, ptr noundef nonnull align 8 dereferenceable(56) @_ZN11CMainWindow16staticMetaObjectE, ptr noundef nonnull @.str.84, ptr noundef null, i32 noundef -1)
  %37 = invoke noundef ptr @_ZN11QMainWindow10addToolBarERK7QString(ptr noundef nonnull align 8 dereferenceable(40) %0, ptr noundef nonnull align 8 dereferenceable(24) %4)
          to label %38 unwind label %62

38:                                               ; preds = %_ZN7QStringD2Ev.exit7
  %39 = getelementptr inbounds nuw i8, ptr %0, i64 80
  store ptr %37, ptr %39, align 8, !tbaa !169
  %40 = load ptr, ptr %4, align 8, !tbaa !11
  %.not.i.i.i8 = icmp eq ptr %40, null
  br i1 %.not.i.i.i8, label %_ZN7QStringD2Ev.exit11, label %_ZN17QArrayDataPointerIDsE5derefEv.exit.i.i9

_ZN17QArrayDataPointerIDsE5derefEv.exit.i.i9:     ; preds = %38
  %41 = atomicrmw sub ptr %40, i32 1 seq_cst, align 4
  %.not.i.i10 = icmp eq i32 %41, 1
  br i1 %.not.i.i10, label %42, label %_ZN7QStringD2Ev.exit11

42:                                               ; preds = %_ZN17QArrayDataPointerIDsE5derefEv.exit.i.i9
  %43 = load ptr, ptr %4, align 8, !tbaa !11
  call void @_ZN10QArrayData10deallocateEPS_xx(ptr noundef %43, i64 noundef 2, i64 noundef 8) #16
  br label %_ZN7QStringD2Ev.exit11

_ZN7QStringD2Ev.exit11:                           ; preds = %38, %_ZN17QArrayDataPointerIDsE5derefEv.exit.i.i9, %42
  call void @llvm.lifetime.end.p0(i64 24, ptr nonnull %4) #16
  %44 = load ptr, ptr %39, align 8, !tbaa !169
  %45 = getelementptr inbounds nuw i8, ptr %0, i64 216
  %46 = load ptr, ptr %45, align 8, !tbaa !149
  call void @_ZN7QWidget9addActionEP7QAction(ptr noundef nonnull align 8 dereferenceable(40) %44, ptr noundef %46)
  %47 = load ptr, ptr %39, align 8, !tbaa !169
  %48 = getelementptr inbounds nuw i8, ptr %0, i64 224
  %49 = load ptr, ptr %48, align 8, !tbaa !153
  call void @_ZN7QWidget9addActionEP7QAction(ptr noundef nonnull align 8 dereferenceable(40) %47, ptr noundef %49)
  ret void

50:                                               ; preds = %1
  %51 = landingpad { ptr, i32 }
          cleanup
  %52 = load ptr, ptr %2, align 8, !tbaa !11
  %.not.i.i.i12 = icmp eq ptr %52, null
  br i1 %.not.i.i.i12, label %_ZN7QStringD2Ev.exit15, label %_ZN17QArrayDataPointerIDsE5derefEv.exit.i.i13

_ZN17QArrayDataPointerIDsE5derefEv.exit.i.i13:    ; preds = %50
  %53 = atomicrmw sub ptr %52, i32 1 seq_cst, align 4
  %.not.i.i14 = icmp eq i32 %53, 1
  br i1 %.not.i.i14, label %54, label %_ZN7QStringD2Ev.exit15

54:                                               ; preds = %_ZN17QArrayDataPointerIDsE5derefEv.exit.i.i13
  %55 = load ptr, ptr %2, align 8, !tbaa !11
  call void @_ZN10QArrayData10deallocateEPS_xx(ptr noundef %55, i64 noundef 2, i64 noundef 8) #16
  br label %_ZN7QStringD2Ev.exit15

_ZN7QStringD2Ev.exit15:                           ; preds = %50, %_ZN17QArrayDataPointerIDsE5derefEv.exit.i.i13, %54
  call void @llvm.lifetime.end.p0(i64 24, ptr nonnull %2) #16
  br label %68

56:                                               ; preds = %_ZN7QStringD2Ev.exit
  %57 = landingpad { ptr, i32 }
          cleanup
  %58 = load ptr, ptr %3, align 8, !tbaa !11
  %.not.i.i.i16 = icmp eq ptr %58, null
  br i1 %.not.i.i.i16, label %_ZN7QStringD2Ev.exit19, label %_ZN17QArrayDataPointerIDsE5derefEv.exit.i.i17

_ZN17QArrayDataPointerIDsE5derefEv.exit.i.i17:    ; preds = %56
  %59 = atomicrmw sub ptr %58, i32 1 seq_cst, align 4
  %.not.i.i18 = icmp eq i32 %59, 1
  br i1 %.not.i.i18, label %60, label %_ZN7QStringD2Ev.exit19

60:                                               ; preds = %_ZN17QArrayDataPointerIDsE5derefEv.exit.i.i17
  %61 = load ptr, ptr %3, align 8, !tbaa !11
  call void @_ZN10QArrayData10deallocateEPS_xx(ptr noundef %61, i64 noundef 2, i64 noundef 8) #16
  br label %_ZN7QStringD2Ev.exit19

_ZN7QStringD2Ev.exit19:                           ; preds = %56, %_ZN17QArrayDataPointerIDsE5derefEv.exit.i.i17, %60
  call void @llvm.lifetime.end.p0(i64 24, ptr nonnull %3) #16
  br label %68

62:                                               ; preds = %_ZN7QStringD2Ev.exit7
  %63 = landingpad { ptr, i32 }
          cleanup
  %64 = load ptr, ptr %4, align 8, !tbaa !11
  %.not.i.i.i20 = icmp eq ptr %64, null
  br i1 %.not.i.i.i20, label %_ZN7QStringD2Ev.exit23, label %_ZN17QArrayDataPointerIDsE5derefEv.exit.i.i21

_ZN17QArrayDataPointerIDsE5derefEv.exit.i.i21:    ; preds = %62
  %65 = atomicrmw sub ptr %64, i32 1 seq_cst, align 4
  %.not.i.i22 = icmp eq i32 %65, 1
  br i1 %.not.i.i22, label %66, label %_ZN7QStringD2Ev.exit23

66:                                               ; preds = %_ZN17QArrayDataPointerIDsE5derefEv.exit.i.i21
  %67 = load ptr, ptr %4, align 8, !tbaa !11
  call void @_ZN10QArrayData10deallocateEPS_xx(ptr noundef %67, i64 noundef 2, i64 noundef 8) #16
  br label %_ZN7QStringD2Ev.exit23

_ZN7QStringD2Ev.exit23:                           ; preds = %62, %_ZN17QArrayDataPointerIDsE5derefEv.exit.i.i21, %66
  call void @llvm.lifetime.end.p0(i64 24, ptr nonnull %4) #16
  br label %68

68:                                               ; preds = %_ZN7QStringD2Ev.exit23, %_ZN7QStringD2Ev.exit19, %_ZN7QStringD2Ev.exit15
  %.pn = phi { ptr, i32 } [ %63, %_ZN7QStringD2Ev.exit23 ], [ %57, %_ZN7QStringD2Ev.exit19 ], [ %51, %_ZN7QStringD2Ev.exit15 ]
  resume { ptr, i32 } %.pn
}